; Function Attrs: norecurse nounwind uwtable
define internal void @_ZN5faiss12_GLOBAL__N_128exhaustive_inner_product_seqINS_22Top1BlockResultHandlerINS_4CMinIflEEEELb0EEEvPKfS7_mmmRT_PKNS_10IDSelectorE.omp_outlined(ptr noalias nocapture noundef readonly %0, ptr noalias nocapture readnone %1, ptr nocapture noundef nonnull readonly align 8 dereferenceable(48) %2, ptr nocapture noundef nonnull readonly align 8 dereferenceable(8) %3, ptr nocapture noundef nonnull readonly align 8 dereferenceable(8) %4, ptr nocapture noundef nonnull readonly align 8 dereferenceable(8) %5, ptr nocapture noundef nonnull readonly align 8 dereferenceable(8) %6, ptr nocapture noundef nonnull readonly align 8 dereferenceable(8) %7, ptr nocapture nonnull readnone align 8 %8) #1 personality ptr @__gxx_personality_v0 {
  %10 = alloca i64, align 8
  %11 = alloca i64, align 8
  %12 = alloca i64, align 8
  %13 = alloca i32, align 4
  %14 = load i64, ptr %3, align 8
  %.not = icmp eq i64 %14, 0
  %.pre = load i32, ptr %0, align 4
  br i1 %.not, label %45, label %15

15:                                               ; preds = %9
  %16 = add i64 %14, -1
  store i64 0, ptr %10, align 8
  store i64 %16, ptr %11, align 8
  store i64 1, ptr %12, align 8
  store i32 0, ptr %13, align 4
  call void @__kmpc_for_static_init_8u(ptr nonnull @1, i32 %.pre, i32 34, ptr nonnull %13, ptr nonnull %10, ptr nonnull %11, ptr nonnull %12, i64 1, i64 1)
  %17 = load i64, ptr %11, align 8
  %18 = call i64 @llvm.umin.i64(i64 %17, i64 %16)
  store i64 %18, ptr %11, align 8
  %19 = load i64, ptr %10, align 8
  %.not43 = icmp ugt i64 %19, %18
  br i1 %.not43, label %._crit_edge41, label %.lr.ph40

.lr.ph40:                                         ; preds = %15
  %20 = getelementptr inbounds i8, ptr %2, i64 32
  %21 = getelementptr inbounds i8, ptr %2, i64 40
  br label %22

22:                                               ; preds = %.lr.ph40, %._crit_edge
  %.038 = phi i64 [ %19, %.lr.ph40 ], [ %41, %._crit_edge ]
  %23 = load ptr, ptr %4, align 8
  %24 = load i64, ptr %5, align 8
  %25 = mul i64 %24, %.038
  %26 = getelementptr inbounds float, ptr %23, i64 %25
  %27 = load i64, ptr %7, align 8
  %.not42 = icmp eq i64 %27, 0
  br i1 %.not42, label %._crit_edge, label %.lr.ph.preheader

.lr.ph.preheader:                                 ; preds = %22
  %28 = load ptr, ptr %6, align 8
  br label %.lr.ph

.lr.ph:                                           ; preds = %.lr.ph.preheader, %_ZN5faiss22Top1BlockResultHandlerINS_4CMinIflEEE19SingleResultHandler10add_resultEfl.exit
  %29 = phi i64 [ %33, %_ZN5faiss22Top1BlockResultHandlerINS_4CMinIflEEE19SingleResultHandler10add_resultEfl.exit ], [ %24, %.lr.ph.preheader ]
  %.02636 = phi i64 [ %32, %_ZN5faiss22Top1BlockResultHandlerINS_4CMinIflEEE19SingleResultHandler10add_resultEfl.exit ], [ 0, %.lr.ph.preheader ]
  %.02735 = phi ptr [ %34, %_ZN5faiss22Top1BlockResultHandlerINS_4CMinIflEEE19SingleResultHandler10add_resultEfl.exit ], [ %28, %.lr.ph.preheader ]
  %.sroa.1.034 = phi float [ %.sroa.1.1, %_ZN5faiss22Top1BlockResultHandlerINS_4CMinIflEEE19SingleResultHandler10add_resultEfl.exit ], [ 0xC7EFFFFFE0000000, %.lr.ph.preheader ]
  %.sroa.9.033 = phi i64 [ %.sroa.9.1, %_ZN5faiss22Top1BlockResultHandlerINS_4CMinIflEEE19SingleResultHandler10add_resultEfl.exit ], [ -1, %.lr.ph.preheader ]
  %30 = invoke noundef float @_ZN5faiss18fvec_inner_productEPKfS1_m(ptr noundef %26, ptr noundef %.02735, i64 noundef %29)
          to label %_ZN5faiss22Top1BlockResultHandlerINS_4CMinIflEEE19SingleResultHandler10add_resultEfl.exit unwind label %46

_ZN5faiss22Top1BlockResultHandlerINS_4CMinIflEEE19SingleResultHandler10add_resultEfl.exit: ; preds = %.lr.ph
  %31 = fcmp olt float %.sroa.1.034, %30
  %.sroa.9.1 = select i1 %31, i64 %.02636, i64 %.sroa.9.033
  %.sroa.1.1 = select i1 %31, float %30, float %.sroa.1.034
  %32 = add nuw i64 %.02636, 1
  %33 = load i64, ptr %5, align 8
  %34 = getelementptr inbounds float, ptr %.02735, i64 %33
  %35 = load i64, ptr %7, align 8
  %36 = icmp ult i64 %32, %35
  br i1 %36, label %.lr.ph, label %._crit_edge, !llvm.loop !41

._crit_edge:                                      ; preds = %_ZN5faiss22Top1BlockResultHandlerINS_4CMinIflEEE19SingleResultHandler10add_resultEfl.exit, %22
  %.sroa.9.0.lcssa = phi i64 [ -1, %22 ], [ %.sroa.9.1, %_ZN5faiss22Top1BlockResultHandlerINS_4CMinIflEEE19SingleResultHandler10add_resultEfl.exit ]
  %.sroa.1.0.lcssa = phi float [ 0xC7EFFFFFE0000000, %22 ], [ %.sroa.1.1, %_ZN5faiss22Top1BlockResultHandlerINS_4CMinIflEEE19SingleResultHandler10add_resultEfl.exit ]
  %37 = load ptr, ptr %20, align 8
  %38 = getelementptr inbounds float, ptr %37, i64 %.038
  store float %.sroa.1.0.lcssa, ptr %38, align 4
  %39 = load ptr, ptr %21, align 8
  %40 = getelementptr inbounds i64, ptr %39, i64 %.038
  store i64 %.sroa.9.0.lcssa, ptr %40, align 8
  %41 = add nuw i64 %.038, 1
  %42 = load i64, ptr %11, align 8
  %43 = add i64 %42, 1
  %44 = icmp ult i64 %41, %43
  br i1 %44, label %22, label %._crit_edge41

._crit_edge41:                                    ; preds = %._crit_edge, %15
  call void @__kmpc_for_static_fini(ptr nonnull @1, i32 %.pre)
  br label %45

45:                                               ; preds = %._crit_edge41, %9
  call void @__kmpc_barrier(ptr nonnull @3, i32 %.pre)
  ret void

46:                                               ; preds = %.lr.ph
  %47 = landingpad { ptr, i32 }
          catch ptr null
  %48 = extractvalue { ptr, i32 } %47, 0
  call void @__clang_call_terminate(ptr %48) #22
  unreachable
}